; Function Attrs: mustprogress nofree norecurse nosync nounwind willreturn memory(argmem: write) uwtable
define void @_ZNK32pxrInternal_v0_24__pxrReserved__21UsdImagingPrimAdapter9GetExtentERKNS_7UsdPrimERKNS_7SdfPathENS_11UsdTimeCodeE(ptr dead_on_unwind noalias nocapture writable writeonly sret(%"class.pxrInternal_v0_24__pxrReserved__::GfRange3d") align 8 %0, ptr nocapture nonnull readnone align 8 %1, ptr nocapture nonnull readnone align 8 %2, ptr nocapture nonnull readnone align 4 %3, double %4) unnamed_addr #4 align 2 {
  %6 = getelementptr inbounds i8, ptr %0, i64 16
  store double 0x47EFFFFFE0000000, ptr %6, align 8
  %7 = getelementptr inbounds i8, ptr %0, i64 8
  store double 0x47EFFFFFE0000000, ptr %7, align 8
  store double 0x47EFFFFFE0000000, ptr %0, align 8
  %8 = getelementptr inbounds nuw i8, ptr %0, i64 24
  %9 = getelementptr inbounds i8, ptr %0, i64 40
  store double 0xC7EFFFFFE0000000, ptr %9, align 8
  %10 = getelementptr inbounds i8, ptr %0, i64 32
  store double 0xC7EFFFFFE0000000, ptr %10, align 8
  store double 0xC7EFFFFFE0000000, ptr %8, align 8
  ret void
}